target datalayout = "e-m:e-p270:32:32-p271:32:32-p272:64:64-i64:64-i128:128-f80:128-n8:16:32:64-S128"
target triple = "x86_64-unknown-linux-gnu"

%"class.QuantLib::Date" = type { i64 }
%"class.QuantLib::Coupon" = type { %"class.QuantLib::CashFlow.base", %"class.QuantLib::Date", double, %"class.QuantLib::Date", %"class.QuantLib::Date", %"class.QuantLib::Date", %"class.QuantLib::Date", %"class.QuantLib::Date", double, %"class.QuantLib::Observable", %"class.QuantLib::Observer" }
%"class.QuantLib::CashFlow.base" = type <{ %"class.QuantLib::Event.base", %"class.QuantLib::LazyObject.base" }>
%"class.QuantLib::Event.base" = type { ptr }
%"class.QuantLib::LazyObject.base" = type <{ ptr, i8, i8, i8, i8 }>
%"class.QuantLib::Observable" = type { ptr, %"class.std::set.0" }
%"class.std::set.0" = type { %"class.std::_Rb_tree.1" }
%"class.std::_Rb_tree.1" = type { %"struct.std::_Rb_tree<QuantLib::Observer *, QuantLib::Observer *, std::_Identity<QuantLib::Observer *>, std::less<QuantLib::Observer *>>::_Rb_tree_impl" }
%"struct.std::_Rb_tree<QuantLib::Observer *, QuantLib::Observer *, std::_Identity<QuantLib::Observer *>, std::less<QuantLib::Observer *>>::_Rb_tree_impl" = type { [8 x i8], %"struct.std::_Rb_tree_header" }
%"struct.std::_Rb_tree_header" = type { %"struct.std::_Rb_tree_node_base", i64 }
%"struct.std::_Rb_tree_node_base" = type { i32, ptr, ptr, ptr }
%"class.QuantLib::Observer" = type { ptr, %"class.std::set" }
%"class.std::set" = type { %"class.std::_Rb_tree" }
%"class.std::_Rb_tree" = type { %"struct.std::_Rb_tree<boost::shared_ptr<QuantLib::Observable>, boost::shared_ptr<QuantLib::Observable>, std::_Identity<boost::shared_ptr<QuantLib::Observable>>, std::less<boost::shared_ptr<QuantLib::Observable>>>::_Rb_tree_impl" }
%"struct.std::_Rb_tree<boost::shared_ptr<QuantLib::Observable>, boost::shared_ptr<QuantLib::Observable>, std::_Identity<boost::shared_ptr<QuantLib::Observable>>, std::less<boost::shared_ptr<QuantLib::Observable>>>::_Rb_tree_impl" = type { [8 x i8], %"struct.std::_Rb_tree_header" }
%"class.QuantLib::DayCounter" = type { %"class.boost::shared_ptr.6" }
%"class.boost::shared_ptr.6" = type { ptr, %"class.boost::detail::shared_count" }
%"class.boost::detail::shared_count" = type { ptr }

; Function Attrs: inlinehint mustprogress nounwind uwtable
define linkonce_odr noundef zeroext i1 @_ZN8QuantLibltERKNS_4DateES2_(ptr noundef nonnull align 8 dereferenceable(8) %d1, ptr noundef nonnull align 8 dereferenceable(8) %d2) #8 comdat {
entry:
  %d1.addr = alloca ptr, align 8
  %d2.addr = alloca ptr, align 8
  store ptr %d1, ptr %d1.addr, align 8, !tbaa !3
  store ptr %d2, ptr %d2.addr, align 8, !tbaa !3
  %0 = load ptr, ptr %d1.addr, align 8, !tbaa !3
  %call = call noundef i64 @_ZNK8QuantLib4Date12serialNumberEv(ptr noundef nonnull align 8 dereferenceable(8) %0)
  %1 = load ptr, ptr %d2.addr, align 8, !tbaa !3
  %call1 = call noundef i64 @_ZNK8QuantLib4Date12serialNumberEv(ptr noundef nonnull align 8 dereferenceable(8) %1)
  %cmp = icmp slt i64 %call, %call1
  ret i1 %cmp
}

; Function Attrs: inlinehint mustprogress nounwind uwtable
define linkonce_odr noundef i64 @_ZNK8QuantLib4Date12serialNumberEv(ptr noundef nonnull align 8 dereferenceable(8) %this) #8 comdat align 2 {
entry:
  %this.addr = alloca ptr, align 8
  store ptr %this, ptr %this.addr, align 8, !tbaa !3
  %this1 = load ptr, ptr %this.addr, align 8
  %serialNumber_ = getelementptr inbounds nuw %"class.QuantLib::Date", ptr %this1, i32 0, i32 0
  %0 = load i64, ptr %serialNumber_, align 8, !tbaa !34
  ret i64 %0
}

; Function Attrs: inlinehint mustprogress nounwind uwtable
define linkonce_odr noundef nonnull align 8 dereferenceable(8) ptr @_ZSt3minIN8QuantLib4DateEERKT_S4_S4_(ptr noundef nonnull align 8 dereferenceable(8) %__a, ptr noundef nonnull align 8 dereferenceable(8) %__b) #8 comdat {
entry:
  %retval = alloca ptr, align 8
  %__a.addr = alloca ptr, align 8
  %__b.addr = alloca ptr, align 8
  store ptr %__a, ptr %__a.addr, align 8, !tbaa !3
  store ptr %__b, ptr %__b.addr, align 8, !tbaa !3
  %0 = load ptr, ptr %__b.addr, align 8, !tbaa !3
  %1 = load ptr, ptr %__a.addr, align 8, !tbaa !3
  %call = call noundef zeroext i1 @_ZN8QuantLibltERKNS_4DateES2_(ptr noundef nonnull align 8 dereferenceable(8) %0, ptr noundef nonnull align 8 dereferenceable(8) %1)
  br i1 %call, label %if.then, label %if.end

if.then:                                          ; preds = %entry
  %2 = load ptr, ptr %__b.addr, align 8, !tbaa !3
  store ptr %2, ptr %retval, align 8
  br label %return

if.end:                                           ; preds = %entry
  %3 = load ptr, ptr %__a.addr, align 8, !tbaa !3
  store ptr %3, ptr %retval, align 8
  br label %return

return:                                           ; preds = %if.end, %if.then
  %4 = load ptr, ptr %retval, align 8
  ret ptr %4
}

; Function Attrs: inlinehint mustprogress nounwind uwtable
define linkonce_odr noundef zeroext i1 @_ZN8QuantLibgtERKNS_4DateES2_(ptr noundef nonnull align 8 dereferenceable(8) %d1, ptr noundef nonnull align 8 dereferenceable(8) %d2) #8 comdat {
entry:
  %d1.addr = alloca ptr, align 8
  %d2.addr = alloca ptr, align 8
  store ptr %d1, ptr %d1.addr, align 8, !tbaa !3
  store ptr %d2, ptr %d2.addr, align 8, !tbaa !3
  %0 = load ptr, ptr %d1.addr, align 8, !tbaa !3
  %call = call noundef i64 @_ZNK8QuantLib4Date12serialNumberEv(ptr noundef nonnull align 8 dereferenceable(8) %0)
  %1 = load ptr, ptr %d2.addr, align 8, !tbaa !3
  %call1 = call noundef i64 @_ZNK8QuantLib4Date12serialNumberEv(ptr noundef nonnull align 8 dereferenceable(8) %1)
  %cmp = icmp sgt i64 %call, %call1
  ret i1 %cmp
}

; Function Attrs: inlinehint mustprogress nounwind uwtable
define linkonce_odr noundef zeroext i1 @_ZN8QuantLibleERKNS_4DateES2_(ptr noundef nonnull align 8 dereferenceable(8) %d1, ptr noundef nonnull align 8 dereferenceable(8) %d2) #8 comdat {
entry:
  %d1.addr = alloca ptr, align 8
  %d2.addr = alloca ptr, align 8
  store ptr %d1, ptr %d1.addr, align 8, !tbaa !3
  store ptr %d2, ptr %d2.addr, align 8, !tbaa !3
  %0 = load ptr, ptr %d1.addr, align 8, !tbaa !3
  %call = call noundef i64 @_ZNK8QuantLib4Date12serialNumberEv(ptr noundef nonnull align 8 dereferenceable(8) %0)
  %1 = load ptr, ptr %d2.addr, align 8, !tbaa !3
  %call1 = call noundef i64 @_ZNK8QuantLib4Date12serialNumberEv(ptr noundef nonnull align 8 dereferenceable(8) %1)
  %cmp = icmp sle i64 %call, %call1
  ret i1 %cmp
}

; Function Attrs: mustprogress uwtable
define noundef i64 @_ZNK8QuantLib6Coupon11accruedDaysERKNS_4DateE(ptr noundef nonnull align 8 dereferenceable(88) %this, ptr noundef nonnull align 8 dereferenceable(8) %d) #4 align 2 personality ptr @__gxx_personality_v0 {
entry:
  %retval = alloca i64, align 8
  %this.addr = alloca ptr, align 8
  %d.addr = alloca ptr, align 8
  %ref.tmp = alloca %"class.QuantLib::DayCounter", align 8
  %exn.slot = alloca ptr, align 8
  %ehselector.slot = alloca i32, align 4
  store ptr %this, ptr %this.addr, align 8, !tbaa !3
  store ptr %d, ptr %d.addr, align 8, !tbaa !3
  %this1 = load ptr, ptr %this.addr, align 8
  %0 = load ptr, ptr %d.addr, align 8, !tbaa !3
  %accrualStartDate_ = getelementptr inbounds nuw %"class.QuantLib::Coupon", ptr %this1, i32 0, i32 3
  %call = call noundef zeroext i1 @_ZN8QuantLibleERKNS_4DateES2_(ptr noundef nonnull align 8 dereferenceable(8) %0, ptr noundef nonnull align 8 dereferenceable(8) %accrualStartDate_)
  br i1 %call, label %if.then, label %lor.lhs.false

lor.lhs.false:                                    ; preds = %entry
  %1 = load ptr, ptr %d.addr, align 8, !tbaa !3
  %paymentDate_ = getelementptr inbounds nuw %"class.QuantLib::Coupon", ptr %this1, i32 0, i32 1
  %call2 = call noundef zeroext i1 @_ZN8QuantLibgtERKNS_4DateES2_(ptr noundef nonnull align 8 dereferenceable(8) %1, ptr noundef nonnull align 8 dereferenceable(8) %paymentDate_)
  br i1 %call2, label %if.then, label %if.else

if.then:                                          ; preds = %lor.lhs.false, %entry
  store i64 0, ptr %retval, align 8
  br label %return

if.else:                                          ; preds = %lor.lhs.false
  call void @llvm.lifetime.start.p0(i64 16, ptr %ref.tmp) #15
  %vtable = load ptr, ptr %this1, align 8, !tbaa !9
  %vfn = getelementptr inbounds ptr, ptr %vtable, i64 10
  %2 = load ptr, ptr %vfn, align 8
  call void %2(ptr dead_on_unwind writable sret(%"class.QuantLib::DayCounter") align 8 %ref.tmp, ptr noundef nonnull align 8 dereferenceable(88) %this1)
  %accrualStartDate_3 = getelementptr inbounds nuw %"class.QuantLib::Coupon", ptr %this1, i32 0, i32 3
  %3 = load ptr, ptr %d.addr, align 8, !tbaa !3
  %accrualEndDate_ = getelementptr inbounds nuw %"class.QuantLib::Coupon", ptr %this1, i32 0, i32 4
  %call4 = invoke noundef nonnull align 8 dereferenceable(8) ptr @_ZSt3minIN8QuantLib4DateEERKT_S4_S4_(ptr noundef nonnull align 8 dereferenceable(8) %3, ptr noundef nonnull align 8 dereferenceable(8) %accrualEndDate_)
          to label %invoke.cont unwind label %lpad

invoke.cont:                                      ; preds = %if.else
  %call6 = invoke noundef i64 @_ZNK8QuantLib10DayCounter8dayCountERKNS_4DateES3_(ptr noundef nonnull align 8 dereferenceable(16) %ref.tmp, ptr noundef nonnull align 8 dereferenceable(8) %accrualStartDate_3, ptr noundef nonnull align 8 dereferenceable(8) %call4)
          to label %invoke.cont5 unwind label %lpad

invoke.cont5:                                     ; preds = %invoke.cont
  store i64 %call6, ptr %retval, align 8
  call void @_ZN8QuantLib10DayCounterD2Ev(ptr noundef nonnull align 8 dereferenceable(16) %ref.tmp) #15
  call void @llvm.lifetime.end.p0(i64 16, ptr %ref.tmp) #15
  br label %return

lpad:                                             ; preds = %invoke.cont, %if.else
  %4 = landingpad { ptr, i32 }
          cleanup
  %5 = extractvalue { ptr, i32 } %4, 0
  store ptr %5, ptr %exn.slot, align 8
  %6 = extractvalue { ptr, i32 } %4, 1
  store i32 %6, ptr %ehselector.slot, align 4
  call void @_ZN8QuantLib10DayCounterD2Ev(ptr noundef nonnull align 8 dereferenceable(16) %ref.tmp) #15
  call void @llvm.lifetime.end.p0(i64 16, ptr %ref.tmp) #15
  br label %eh.resume

return:                                           ; preds = %invoke.cont5, %if.then
  %7 = load i64, ptr %retval, align 8
  ret i64 %7

eh.resume:                                        ; preds = %lpad
  %exn = load ptr, ptr %exn.slot, align 8
  %sel = load i32, ptr %ehselector.slot, align 4
  %lpad.val = insertvalue { ptr, i32 } poison, ptr %exn, 0
  %lpad.val7 = insertvalue { ptr, i32 } %lpad.val, i32 %sel, 1
  resume { ptr, i32 } %lpad.val7
}