; Function Attrs: mustprogress uwtable
define noundef i64 @_ZNK8QuantLib6Coupon11accruedDaysERKNS_4DateE(ptr noundef nonnull align 8 dereferenceable(88) %this, ptr noundef nonnull align 8 dereferenceable(8) %d) local_unnamed_addr #3 align 2 personality ptr @__gxx_personality_v0 {
entry:
  %ref.tmp = alloca %"class.QuantLib::DayCounter", align 8
  %accrualStartDate_ = getelementptr inbounds nuw i8, ptr %this, i64 40
  %0 = load i64, ptr %d, align 8, !tbaa !26
  %1 = load i64, ptr %accrualStartDate_, align 8, !tbaa !26
  %cmp.i = icmp sle i64 %0, %1
  %paymentDate_ = getelementptr inbounds nuw i8, ptr %this, i64 24
  %2 = load i64, ptr %paymentDate_, align 8
  %cmp.i3 = icmp sgt i64 %0, %2
  %or.cond = select i1 %cmp.i, i1 true, i1 %cmp.i3
  br i1 %or.cond, label %return, label %if.else

if.else:                                          ; preds = %entry
  call void @llvm.lifetime.start.p0(i64 16, ptr nonnull %ref.tmp) #16
  %vtable = load ptr, ptr %this, align 8, !tbaa !3
  %vfn = getelementptr inbounds i8, ptr %vtable, i64 80
  %3 = load ptr, ptr %vfn, align 8
  call void %3(ptr dead_on_unwind nonnull writable sret(%"class.QuantLib::DayCounter") align 8 %ref.tmp, ptr noundef nonnull align 8 dereferenceable(88) %this)
  %accrualEndDate_ = getelementptr inbounds nuw i8, ptr %this, i64 48
  %4 = load i64, ptr %accrualEndDate_, align 8, !tbaa !26
  %5 = load i64, ptr %d, align 8, !tbaa !26
  %cmp.i.i = icmp slt i64 %4, %5
  %__b.__a.i = select i1 %cmp.i.i, ptr %accrualEndDate_, ptr %d
  %call6 = invoke noundef i64 @_ZNK8QuantLib10DayCounter8dayCountERKNS_4DateES3_(ptr noundef nonnull align 8 dereferenceable(16) %ref.tmp, ptr noundef nonnull align 8 dereferenceable(8) %accrualStartDate_, ptr noundef nonnull align 8 dereferenceable(8) %__b.__a.i)
          to label %invoke.cont5 unwind label %lpad

invoke.cont5:                                     ; preds = %if.else
  %pn.i.i = getelementptr inbounds nuw i8, ptr %ref.tmp, i64 8
  %6 = load ptr, ptr %pn.i.i, align 8, !tbaa !27
  %cmp.not.i.i.i = icmp eq ptr %6, null
  br i1 %cmp.not.i.i.i, label %_ZN8QuantLib10DayCounterD2Ev.exit, label %if.then.i.i.i

if.then.i.i.i:                                    ; preds = %invoke.cont5
  %use_count_.i.i.i.i = getelementptr inbounds nuw i8, ptr %6, i64 8
  %7 = atomicrmw sub ptr %use_count_.i.i.i.i, i32 1 acq_rel, align 4
  %cmp.i.i.i.i = icmp eq i32 %7, 1
  br i1 %cmp.i.i.i.i, label %if.then.i.i.i.i, label %_ZN8QuantLib10DayCounterD2Ev.exit

if.then.i.i.i.i:                                  ; preds = %if.then.i.i.i
  %vtable.i.i.i.i = load ptr, ptr %6, align 8, !tbaa !3
  %vfn.i.i.i.i = getelementptr inbounds i8, ptr %vtable.i.i.i.i, i64 16
  %8 = load ptr, ptr %vfn.i.i.i.i, align 8
  invoke void %8(ptr noundef nonnull align 8 dereferenceable(16) %6)
          to label %.noexc.i.i.i unwind label %terminate.lpad.i.i.i

.noexc.i.i.i:                                     ; preds = %if.then.i.i.i.i
  %weak_count_.i.i.i.i.i = getelementptr inbounds nuw i8, ptr %6, i64 12
  %9 = atomicrmw sub ptr %weak_count_.i.i.i.i.i, i32 1 acq_rel, align 4
  %cmp.i.i.i.i.i = icmp eq i32 %9, 1
  br i1 %cmp.i.i.i.i.i, label %if.then.i.i.i.i.i, label %_ZN8QuantLib10DayCounterD2Ev.exit

if.then.i.i.i.i.i:                                ; preds = %.noexc.i.i.i
  %vtable.i.i.i.i.i = load ptr, ptr %6, align 8, !tbaa !3
  %vfn.i.i.i.i.i = getelementptr inbounds i8, ptr %vtable.i.i.i.i.i, i64 24
  %10 = load ptr, ptr %vfn.i.i.i.i.i, align 8
  invoke void %10(ptr noundef nonnull align 8 dereferenceable(16) %6)
          to label %_ZN8QuantLib10DayCounterD2Ev.exit unwind label %terminate.lpad.i.i.i

terminate.lpad.i.i.i:                             ; preds = %if.then.i.i.i.i.i, %if.then.i.i.i.i
  %11 = landingpad { ptr, i32 }
          catch ptr null
  %12 = extractvalue { ptr, i32 } %11, 0
  call void @__clang_call_terminate(ptr %12) #17
  unreachable

_ZN8QuantLib10DayCounterD2Ev.exit:                ; preds = %invoke.cont5, %if.then.i.i.i, %.noexc.i.i.i, %if.then.i.i.i.i.i
  call void @llvm.lifetime.end.p0(i64 16, ptr nonnull %ref.tmp) #16
  br label %return

lpad:                                             ; preds = %if.else
  %13 = landingpad { ptr, i32 }
          cleanup
  call void @_ZN8QuantLib10DayCounterD2Ev(ptr noundef nonnull align 8 dereferenceable(16) %ref.tmp) #16
  call void @llvm.lifetime.end.p0(i64 16, ptr nonnull %ref.tmp) #16
  resume { ptr, i32 } %13

return:                                           ; preds = %entry, %_ZN8QuantLib10DayCounterD2Ev.exit
  %retval.0 = phi i64 [ %call6, %_ZN8QuantLib10DayCounterD2Ev.exit ], [ 0, %entry ]
  ret i64 %retval.0
}